; Function Attrs: nounwind uwtable
define internal void @_render_line(ptr noundef %0, ptr noundef %1, ptr noundef %2) #0 {
  %4 = alloca %struct._lv_matrix_t, align 4
  %5 = alloca %struct._lv_fpoint_t, align 4
  %6 = alloca %struct._lv_fpoint_t, align 4
  call void @llvm.lifetime.start.p0(i64 36, ptr nonnull %4) #9
  %7 = getelementptr inbounds nuw i8, ptr %1, i64 392
  %8 = call ptr @lv_memcpy(ptr noundef nonnull %4, ptr noundef nonnull %7, i64 noundef 36) #9
  %9 = getelementptr inbounds nuw i8, ptr %0, i64 464
  call void @lv_matrix_multiply(ptr noundef nonnull %7, ptr noundef nonnull %9) #9
  %.not = icmp eq ptr %2, null
  br i1 %.not, label %11, label %10

10:                                               ; preds = %3
  call void @lv_matrix_multiply(ptr noundef nonnull %7, ptr noundef nonnull %2) #9
  br label %11

11:                                               ; preds = %10, %3
  %12 = call ptr @lv_vector_path_create(i32 noundef 0) #9
  call void @llvm.lifetime.start.p0(i64 8, ptr nonnull %5) #9
  %13 = getelementptr inbounds nuw i8, ptr %0, i64 576
  %14 = load float, ptr %13, align 8, !tbaa !182
  store float %14, ptr %5, align 4, !tbaa !14
  %15 = getelementptr inbounds nuw i8, ptr %5, i64 4
  %16 = getelementptr inbounds nuw i8, ptr %0, i64 580
  %17 = load float, ptr %16, align 4, !tbaa !183
  store float %17, ptr %15, align 4, !tbaa !18
  call void @lv_vector_path_move_to(ptr noundef %12, ptr noundef nonnull %5) #9
  call void @llvm.lifetime.start.p0(i64 8, ptr nonnull %6) #9
  %18 = getelementptr inbounds nuw i8, ptr %0, i64 584
  %19 = load float, ptr %18, align 8, !tbaa !184
  store float %19, ptr %6, align 4, !tbaa !14
  %20 = getelementptr inbounds nuw i8, ptr %6, i64 4
  %21 = getelementptr inbounds nuw i8, ptr %0, i64 588
  %22 = load float, ptr %21, align 4, !tbaa !185
  store float %22, ptr %20, align 4, !tbaa !18
  call void @lv_vector_path_line_to(ptr noundef %12, ptr noundef nonnull %6) #9
  %23 = getelementptr inbounds nuw i8, ptr %1, i64 8
  %24 = getelementptr inbounds nuw i8, ptr %0, i64 512
  %25 = load ptr, ptr %24, align 8, !tbaa !124
  %.not.i = icmp eq ptr %25, null
  br i1 %.not.i, label %.loopexit31.i, label %26

26:                                               ; preds = %11
  %27 = getelementptr inbounds nuw i8, ptr %0, i64 504
  %.02334.i = load ptr, ptr %27, align 8, !tbaa !4
  %.not2635.i = icmp eq ptr %.02334.i, null
  br i1 %.not2635.i, label %.loopexit31.i, label %.lr.ph.i

.lr.ph.i:                                         ; preds = %26, %36
  %.02336.i = phi ptr [ %.023.i, %36 ], [ %.02334.i, %26 ]
  %28 = getelementptr inbounds nuw i8, ptr %.02336.i, i64 16
  %29 = load ptr, ptr %28, align 8, !tbaa !121
  %.not27.i = icmp eq ptr %29, null
  br i1 %.not27.i, label %36, label %30

30:                                               ; preds = %.lr.ph.i
  %31 = call i32 @strcmp(ptr noundef nonnull dereferenceable(1) %25, ptr noundef nonnull dereferenceable(1) %29) #10
  %32 = icmp eq i32 %31, 0
  br i1 %32, label %33, label %36

33:                                               ; preds = %30
  %34 = getelementptr inbounds nuw i8, ptr %.02336.i, i64 528
  %35 = load ptr, ptr %34, align 8, !tbaa !176
  call void %35(ptr noundef nonnull %.02336.i, ptr noundef nonnull %23, ptr noundef %0, i1 noundef zeroext true) #9
  br label %.loopexit31.i

36:                                               ; preds = %30, %.lr.ph.i
  %.023.i = load ptr, ptr %.02336.i, align 8, !tbaa !4
  %.not26.i = icmp eq ptr %.023.i, null
  br i1 %.not26.i, label %.loopexit31.i, label %.lr.ph.i, !llvm.loop !177

.loopexit31.i:                                    ; preds = %36, %33, %26, %11
  %37 = getelementptr inbounds nuw i8, ptr %0, i64 520
  %38 = load ptr, ptr %37, align 8, !tbaa !126
  %.not28.i = icmp eq ptr %38, null
  br i1 %.not28.i, label %_copy_draw_dsc_from_ref.exit, label %39

39:                                               ; preds = %.loopexit31.i
  %40 = getelementptr inbounds nuw i8, ptr %0, i64 504
  %.037.i = load ptr, ptr %40, align 8, !tbaa !4
  %.not2938.i = icmp eq ptr %.037.i, null
  br i1 %.not2938.i, label %_copy_draw_dsc_from_ref.exit, label %.lr.ph40.i

.lr.ph40.i:                                       ; preds = %39, %49
  %.039.i = phi ptr [ %.0.i, %49 ], [ %.037.i, %39 ]
  %41 = getelementptr inbounds nuw i8, ptr %.039.i, i64 16
  %42 = load ptr, ptr %41, align 8, !tbaa !121
  %.not30.i = icmp eq ptr %42, null
  br i1 %.not30.i, label %49, label %43

43:                                               ; preds = %.lr.ph40.i
  %44 = call i32 @strcmp(ptr noundef nonnull dereferenceable(1) %38, ptr noundef nonnull dereferenceable(1) %42) #10
  %45 = icmp eq i32 %44, 0
  br i1 %45, label %46, label %49

46:                                               ; preds = %43
  %47 = getelementptr inbounds nuw i8, ptr %.039.i, i64 528
  %48 = load ptr, ptr %47, align 8, !tbaa !176
  call void %48(ptr noundef nonnull %.039.i, ptr noundef nonnull %23, ptr noundef %0, i1 noundef zeroext false) #9
  br label %_copy_draw_dsc_from_ref.exit

49:                                               ; preds = %43, %.lr.ph40.i
  %.0.i = load ptr, ptr %.039.i, align 8, !tbaa !4
  %.not29.i = icmp eq ptr %.0.i, null
  br i1 %.not29.i, label %_copy_draw_dsc_from_ref.exit, label %.lr.ph40.i, !llvm.loop !178

_copy_draw_dsc_from_ref.exit:                     ; preds = %49, %.loopexit31.i, %39, %46
  call void @lv_vector_dsc_add_path(ptr noundef %1, ptr noundef %12) #9
  call void @lv_vector_path_delete(ptr noundef %12) #9
  %50 = call ptr @lv_memcpy(ptr noundef nonnull %7, ptr noundef nonnull %4, i64 noundef 36) #9
  call void @llvm.lifetime.end.p0(i64 8, ptr nonnull %6) #9
  call void @llvm.lifetime.end.p0(i64 8, ptr nonnull %5) #9
  call void @llvm.lifetime.end.p0(i64 36, ptr nonnull %4) #9
  ret void
}